; Function Attrs: nofree nounwind uwtable
define noundef ptr @push_obj_state(ptr noundef captures(none) %0) local_unnamed_addr #3 {
  %2 = tail call noalias dereferenceable_or_null(432) ptr @calloc(i64 noundef 1, i64 noundef 432) #28
  %3 = icmp eq ptr %2, null
  br i1 %3, label %4, label %gv_alloc.exit

4:                                                ; preds = %1
  %5 = load ptr, ptr @stderr, align 8, !tbaa !6
  %6 = tail call i32 (ptr, ptr, ...) @fprintf(ptr noundef %5, ptr noundef nonnull @.str.41, i64 noundef 432) #29
  tail call fastcc void @graphviz_exit() #30
  unreachable

gv_alloc.exit:                                    ; preds = %1
  %7 = getelementptr inbounds nuw i8, ptr %0, i64 32
  %8 = load ptr, ptr %7, align 8, !tbaa !9
  store ptr %8, ptr %2, align 8, !tbaa !32
  store ptr %2, ptr %7, align 8, !tbaa !9
  %.not = icmp eq ptr %8, null
  br i1 %.not, label %28, label %9

9:                                                ; preds = %gv_alloc.exit
  %10 = getelementptr inbounds nuw i8, ptr %2, i64 32
  %11 = getelementptr inbounds nuw i8, ptr %8, i64 32
  tail call void @llvm.memcpy.p0.p0.i64(ptr noundef nonnull align 8 dereferenceable(40) %10, ptr noundef nonnull align 8 dereferenceable(40) %11, i64 40, i1 false), !tbaa.struct !38
  %12 = getelementptr inbounds nuw i8, ptr %2, i64 72
  %13 = getelementptr inbounds nuw i8, ptr %8, i64 72
  tail call void @llvm.memcpy.p0.p0.i64(ptr noundef nonnull align 8 dereferenceable(40) %12, ptr noundef nonnull align 8 dereferenceable(40) %13, i64 40, i1 false), !tbaa.struct !38
  %14 = getelementptr inbounds nuw i8, ptr %8, i64 168
  %15 = load i32, ptr %14, align 8, !tbaa !40
  %16 = getelementptr inbounds nuw i8, ptr %2, i64 168
  store i32 %15, ptr %16, align 8, !tbaa !40
  %17 = getelementptr inbounds nuw i8, ptr %8, i64 172
  %18 = load i32, ptr %17, align 4, !tbaa !41
  %19 = getelementptr inbounds nuw i8, ptr %2, i64 172
  store i32 %18, ptr %19, align 4, !tbaa !41
  %20 = getelementptr inbounds nuw i8, ptr %8, i64 176
  %21 = load double, ptr %20, align 8, !tbaa !42
  %22 = getelementptr inbounds nuw i8, ptr %2, i64 176
  store double %21, ptr %22, align 8, !tbaa !42
  %23 = getelementptr inbounds nuw i8, ptr %8, i64 152
  %24 = load i32, ptr %23, align 8, !tbaa !43
  %25 = getelementptr inbounds nuw i8, ptr %2, i64 152
  store i32 %24, ptr %25, align 8, !tbaa !43
  %26 = getelementptr inbounds nuw i8, ptr %2, i64 112
  %27 = getelementptr inbounds nuw i8, ptr %8, i64 112
  tail call void @llvm.memcpy.p0.p0.i64(ptr noundef nonnull align 8 dereferenceable(40) %26, ptr noundef nonnull align 8 dereferenceable(40) %27, i64 40, i1 false), !tbaa.struct !38
  br label %31

28:                                               ; preds = %gv_alloc.exit
  %29 = getelementptr inbounds nuw i8, ptr %2, i64 168
  store i32 3, ptr %29, align 8, !tbaa !40
  %30 = getelementptr inbounds nuw i8, ptr %2, i64 176
  store double 1.000000e+00, ptr %30, align 8, !tbaa !42
  br label %31

31:                                               ; preds = %28, %9
  ret ptr %2
}